Certificate:
    Data:
        Version: 3 (0x2)
        Serial Number: 1 (0x1)
    Signature Algorithm: sha256WithRSAEncryption
        Issuer: C=US, ST=California, L=Cupertino, O=Parzee, OU=Parzee, CN=parzee-freeswitch-sfo1/emailAddress=gonzalo@parzee.com
        Validity
            Not Before: Feb 16 07:57:10 2016 GMT
            Not After : Feb 15 07:57:10 2017 GMT
        Subject: C=US, ST=California, L=Cupertino, O=Parzee, OU=Engineering, CN=parzee-freeswitch-sfo1
        Subject Public Key Info:
            Public Key Algorithm: rsaEncryption
                Public-Key: (4096 bit)
                Modulus:
                    00:d9:93:3e:0f:6f:1b:9d:0e:75:1a:49:33:b3:0c:
                    5f:89:59:9d:f8:65:9e:f5:db:1a:e3:a4:a6:a6:51:
                    57:c0:42:01:02:77:4a:31:fb:70:44:a6:b6:8d:bb:
                    87:03:3a:5d:d2:ec:5c:bb:09:8e:d3:87:ce:76:37:
                    80:92:97:84:b0:a0:bb:6a:89:6f:e4:72:ab:57:bc:
                    d2:7d:e6:ca:8d:83:5e:06:ee:8b:94:0f:67:9e:f2:
                    19:2b:f1:a3:07:8a:d1:23:ad:3b:cd:14:49:71:cb:
                    21:e1:dd:10:7e:19:7f:41:af:26:de:f8:5e:93:48:
                    62:8e:a8:60:78:c3:29:d6:c3:20:b9:ac:b3:08:a9:
                    d9:7b:76:cb:83:da:82:c7:c3:ed:7b:72:07:c4:48:
                    07:24:d4:fa:d8:6a:ac:d1:3c:45:22:53:9f:84:1f:
                    0f:03:e1:30:41:bf:4e:89:23:de:67:5c:03:41:eb:
                    3b:da:3b:be:84:7c:c5:61:48:73:35:2d:60:b7:11:
                    d0:f3:73:da:52:c5:0d:b7:f5:73:db:81:7c:a8:dd:
                    d2:2e:d2:ff:8c:d1:2d:85:1d:e0:cc:8c:51:11:e8:
                    ff:3e:87:f0:01:ad:72:95:2b:ff:a1:5f:07:58:69:
                    a2:1f:22:88:63:fe:af:35:3f:52:41:c6:3c:0d:0f:
                    bc:89:90:f9:3e:87:03:0f:ad:9f:e0:ea:de:47:88:
                    29:16:3e:7e:da:89:88:16:26:74:e0:34:5e:ca:60:
                    b6:74:d6:fd:0e:cb:cf:e8:d7:3b:7e:f1:bb:a0:36:
                    05:2a:44:b1:49:69:53:7c:db:90:4d:dd:2c:03:f6:
                    b1:0d:74:5d:c1:a2:5d:ec:ec:05:76:08:ff:c5:3a:
                    e1:0e:3b:cb:48:c8:ac:60:fe:21:bc:90:38:4c:20:
                    5c:4f:a6:1f:1b:84:34:0e:8f:0b:71:cd:8c:aa:06:
                    62:d1:91:b7:cb:ae:f6:4d:e0:1e:91:4a:64:d2:dd:
                    7a:f4:0e:88:e8:56:13:12:d8:9e:93:da:c3:14:ef:
                    6e:af:20:d1:0e:34:9b:84:4a:fa:82:45:e2:57:19:
                    e7:cb:d6:28:13:d9:d1:d8:7d:7c:56:41:b2:81:0d:
                    0c:84:63:17:b0:f0:f9:b9:4c:36:8a:00:e4:fb:a6:
                    06:77:37:4b:ef:2e:cd:97:bc:26:e3:bd:b4:59:5a:
                    42:28:e3:21:8a:a2:15:de:33:ac:fe:24:db:7d:54:
                    47:9f:c4:65:5c:7d:a4:83:0d:dc:9e:18:35:f6:35:
                    81:d5:96:62:c2:ee:91:68:41:9a:e0:c8:9f:a2:f4:
                    3c:40:fe:f1:aa:e4:77:df:9b:23:5e:7e:fe:25:38:
                    68:a2:c9
                Exponent: 65537 (0x10001)
        X509v3 extensions:
            X509v3 Authority Key Identifier: 
                keyid:39:BD:A3:50:36:AE:78:19:21:5D:F4:C0:E7:21:D1:48:14:7F:10:AD

            X509v3 Extended Key Usage: 
                TLS Web Server Authentication, TLS Web Client Authentication, Microsoft Server Gated Crypto, Netscape Server Gated Crypto
            X509v3 Basic Constraints: critical
                CA:FALSE
    Signature Algorithm: sha256WithRSAEncryption
         b2:f2:68:a3:15:1c:e7:de:7a:3d:14:a7:59:1c:f6:ee:6c:b4:
         fe:a6:f0:aa:17:28:63:5e:f3:71:df:be:9e:6a:e7:6c:03:01:
         7e:57:5a:3e:cd:74:12:20:37:fa:f4:94:8d:ed:e7:d8:69:c1:
         14:3b:9a:f1:80:0b:1d:92:f5:a1:4e:b1:fb:8e:f3:bd:23:e4:
         77:a9:b6:5e:05:2e:f4:7b:fb:92:d1:9b:94:62:ea:20:60:e2:
         7f:73:f3:d3:28:35:13:88:f4:27:22:dd:80:33:28:16:79:00:
         b7:5d:49:b8:4f:e9:a1:a1:03:0a:c6:3c:c8:a5:50:f4:6e:68:
         d7:52:49:54:70:65:b1:e9:d8:89:9a:97:fe:9d:e4:de:1f:45:
         6d:b8:79:cb:4a:88:17:db:a0:7c:35:b2:ae:22:81:cd:71:be:
         a4:78:58:55:20:96:ce:1c:c5:8b:61:86:bc:58:95:40:ef:07:
         7a:3e:65:8c:3b:57:97:6f:f4:b3:c4:ec:72:88:61:6e:40:ec:
         d6:9a:3a:7b:ad:0d:5b:8d:ff:c5:a1:a9:65:c5:48:72:9c:8c:
         82:10:58:21:2e:38:75:76:d6:d1:91:06:d6:f6:55:fb:d7:8b:
         8a:c9:3b:03:01:2e:fb:d5:d5:95:d9:85:ee:6f:52:2e:a1:ac:
         e6:f7:92:77:31:82:e1:8c:57:7c:fb:5c:b8:ae:26:30:42:9e:
         e2:de:1e:9d:e6:44:52:d0:8f:d1:0d:3a:66:ec:7b:d3:19:1a:
         42:94:bb:1f:80:5f:eb:d4:6c:fa:ca:50:39:28:91:76:fc:ae:
         ba:03:2e:86:2f:90:97:58:c6:c0:c8:f7:de:11:26:bc:8c:ce:
         cb:5e:68:cd:25:49:bd:1d:82:8d:72:d9:b4:d7:60:20:41:ce:
         b8:65:ba:54:b4:7f:48:eb:d7:20:6c:83:6f:ba:c4:e2:fa:c6:
         ae:d9:f4:0c:ea:1c:a7:70:86:21:de:91:9e:53:cb:64:87:bd:
         94:5d:a4:ff:84:88:8d:1e:e6:37:6a:94:52:d0:65:bf:0b:3c:
         1f:ba:b6:63:50:b7:04:e6:d3:91:9a:f9:77:b0:ff:8c:5b:9b:
         74:1c:35:5e:08:67:5b:0a:0e:e1:01:31:6d:f3:8c:00:5a:73:
         7d:d7:ec:95:1c:e6:a9:f0:51:5d:83:0e:02:87:50:96:32:b8:
         7a:6d:74:36:7c:79:54:56:87:65:8e:36:cc:1d:52:59:d9:33:
         05:06:0a:39:36:94:ce:29:7a:91:ef:96:e0:e4:65:4e:50:d2:
         de:52:31:dc:0e:6f:c7:ff:1a:79:89:85:0b:97:1b:92:a1:9f:
         18:09:5b:a5:ac:d7:95:a2
-----BEGIN CERTIFICATE-----
MIIF/TCCA+WgAwIBAgIBATANBgkqhkiG9w0BAQsFADCBnDELMAkGA1UEBhMCVVMx
EzARBgNVBAgTCkNhbGlmb3JuaWExEjAQBgNVBAcTCUN1cGVydGlubzEPMA0GA1UE
ChMGUGFyemVlMQ8wDQYDVQQLEwZQYXJ6ZWUxHzAdBgNVBAMTFnBhcnplZS1mcmVl
c3dpdGNoLXNmbzExITAfBgkqhkiG9w0BCQEWEmdvbnphbG9AcGFyemVlLmNvbTAe
Fw0xNjAyMTYwNzU3MTBaFw0xNzAyMTUwNzU3MTBaMH4xCzAJBgNVBAYTAlVTMRMw
EQYDVQQIEwpDYWxpZm9ybmlhMRIwEAYDVQQHEwlDdXBlcnRpbm8xDzANBgNVBAoT
BlBhcnplZTEUMBIGA1UECxMLRW5naW5lZXJpbmcxHzAdBgNVBAMTFnBhcnplZS1m
cmVlc3dpdGNoLXNmbzEwggIiMA0GCSqGSIb3DQEBAQUAA4ICDwAwggIKAoICAQDZ
kz4PbxudDnUaSTOzDF+JWZ34ZZ712xrjpKamUVfAQgECd0ox+3BEpraNu4cDOl3S
7Fy7CY7Th852N4CSl4SwoLtqiW/kcqtXvNJ95sqNg14G7ouUD2ee8hkr8aMHitEj
rTvNFElxyyHh3RB+GX9Brybe+F6TSGKOqGB4wynWwyC5rLMIqdl7dsuD2oLHw+17
cgfESAck1PrYaqzRPEUiU5+EHw8D4TBBv06JI95nXANB6zvaO76EfMVhSHM1LWC3
EdDzc9pSxQ239XPbgXyo3dIu0v+M0S2FHeDMjFER6P8+h/ABrXKVK/+hXwdYaaIf
Iohj/q81P1JBxjwND7yJkPk+hwMPrZ/g6t5HiCkWPn7aiYgWJnTgNF7KYLZ01v0O
y8/o1zt+8bugNgUqRLFJaVN825BN3SwD9rENdF3Bol3s7AV2CP/FOuEOO8tIyKxg
/iG8kDhMIFxPph8bhDQOjwtxzYyqBmLRkbfLrvZN4B6RSmTS3Xr0DojoVhMS2J6T
2sMU726vINEONJuESvqCReJXGefL1igT2dHYfXxWQbKBDQyEYxew8Pm5TDaKAOT7
pgZ3N0vvLs2XvCbjvbRZWkIo4yGKohXeM6z+JNt9VEefxGVcfaSDDdyeGDX2NYHV
lmLC7pFoQZrgyJ+i9DxA/vGq5HffmyNefv4lOGiiyQIDAQABo2cwZTAfBgNVHSME
GDAWgBQ5vaNQNq54GSFd9MDnIdFIFH8QrTA0BgNVHSUELTArBggrBgEFBQcDAQYI
KwYBBQUHAwIGCisGAQQBgjcKAwMGCWCGSAGG+EIEATAMBgNVHRMBAf8EAjAAMA0G
CSqGSIb3DQEBCwUAA4ICAQCy8mijFRzn3no9FKdZHPbubLT+pvCqFyhjXvNx376e
audsAwF+V1o+zXQSIDf69JSN7efYacEUO5rxgAsdkvWhTrH7jvO9I+R3qbZeBS70
e/uS0ZuUYuogYOJ/c/PTKDUTiPQnIt2AMygWeQC3XUm4T+mhoQMKxjzIpVD0bmjX
UklUcGWx6diJmpf+neTeH0VtuHnLSogX26B8NbKuIoHNcb6keFhVIJbOHMWLYYa8
WJVA7wd6PmWMO1eXb/SzxOxyiGFuQOzWmjp7rQ1bjf/FoallxUhynIyCEFghLjh1
dtbRkQbW9lX714uKyTsDAS771dWV2YXub1Iuoazm95J3MYLhjFd8+1y4riYwQp7i
3h6d5kRS0I/RDTpm7HvTGRpClLsfgF/r1Gz6ylA5KJF2/K66Ay6GL5CXWMbAyPfe
ESa8jM7LXmjNJUm9HYKNctm012AgQc64ZbpUtH9I69cgbINvusTi+sau2fQM6hyn
cIYh3pGeU8tkh72UXaT/hIiNHuY3apRS0GW/CzwfurZjULcE5tORmvl3sP+MW5t0
HDVeCGdbCg7hATFt84wAWnN91+yVHOap8FFdgw4Ch1CWMrh6bXQ2fHlUVodljjbM
HVJZ2TMFBgo5NpTOKXqR75bg5GVOUNLeUjHcDm/H/xp5iYULlxuSoZ8YCVulrNeV
og==
-----END CERTIFICATE-----
-----BEGIN RSA PRIVATE KEY-----
MIIJKgIBAAKCAgEA2ZM+D28bnQ51GkkzswxfiVmd+GWe9dsa46SmplFXwEIBAndK
MftwRKa2jbuHAzpd0uxcuwmO04fOdjeAkpeEsKC7aolv5HKrV7zSfebKjYNeBu6L
lA9nnvIZK/GjB4rRI607zRRJccsh4d0Qfhl/Qa8m3vhek0hijqhgeMMp1sMguayz
CKnZe3bLg9qCx8Pte3IHxEgHJNT62Gqs0TxFIlOfhB8PA+EwQb9OiSPeZ1wDQes7
2ju+hHzFYUhzNS1gtxHQ83PaUsUNt/Vz24F8qN3SLtL/jNEthR3gzIxREej/Pofw
Aa1ylSv/oV8HWGmiHyKIY/6vNT9SQcY8DQ+8iZD5PocDD62f4OreR4gpFj5+2omI
FiZ04DReymC2dNb9DsvP6Nc7fvG7oDYFKkSxSWlTfNuQTd0sA/axDXRdwaJd7OwF
dgj/xTrhDjvLSMisYP4hvJA4TCBcT6YfG4Q0Do8Lcc2MqgZi0ZG3y672TeAekUpk
0t169A6I6FYTEtiek9rDFO9uryDRDjSbhEr6gkXiVxnny9YoE9nR2H18VkGygQ0M
hGMXsPD5uUw2igDk+6YGdzdL7y7Nl7wm4720WVpCKOMhiqIV3jOs/iTbfVRHn8Rl
XH2kgw3cnhg19jWB1ZZiwu6RaEGa4MifovQ8QP7xquR335sjXn7+JThooskCAwEA
AQKCAgEAtdcGtjWBGZk8q7RkXg9IRW29xh2AZjAx3/H7SeOP+GHxoBL80ps3cFj5
F6mUJFGCmsbqlXNeiFHnbwviDCJQRqJ/IIIvHvnrVA++yHS78tvJGPgDdcIOM1xZ
R03TmHkfY7bj1PlQjKdd8PwmTY2XutjdHtrriCKmJF57ClLqQ9CfKC87DlGOL07Q
tqlIRhbtAxABh70/IzxRTdCSEOlTSmYjWnPuw6pP/5MY2ys8NJxFKLGmOzVVfDsf
Z7f6eYYsX7SnMuEvpZ+FYKrmop0tB6EkiffUluc4KRoYiDv5gYN+188a+vvwWNYF
9uOKKw1V7rmYziHMYy9B2zEHfU8anT7j+3PcF7Acmg7Ns5OzTJl+eZXgoC5O+oaT
em9GDzYa6LktQM0bsO4bDBhCnWlnCpcsR3YI7NKsk7DT7LVtwtdiN4rX6aCPgEYV
PSwLflFlTyNd4PUTb/XX+USP5FeLnvp/y+ghHwFtoAPkCua+8i91UnVxd/+0hO28
AAFjLS1+XTcX8MuYdH/5FTFyiRZ2pcbjYgNcKYjnougr/VzBztqAoDSsm83ub7Cc
38D2NUaOehx+eLP/BjWXyMuAbpP2+GcUBw2UJecD0q5cxYollT8zuY0nJUzc4QZs
Qwcy2UCso5HNYxeDSaks2+pB+928xpa1ANINxMrOtsFvaWxhpaUCggEBAP/JNLjj
/KogKSFLONtO0Pjs0NNtiF+MnpUzpQxO4JkvwHNsLMHPwaHjUjVD9ydqZ/5+HdTw
QcXUm3dV4t6ZFH+5Nuqwrlc/AF7ZTqmkjw5rUEAEJcH2LzS1eqH7b895cMWoXYvH
L4XpOIvlW5hOe3TFmzQTcJFeRpAL8Ig+MDfc6rMC9EWmfHZLd69WlphTUX0YGftt
9B6q+Q+9L7bFSeiMzj8+rY647y1806UORtDhx5EUlCaYXg51tjzJItbIXAVmSQTN
d4sxeEari8l55OQbiCoDutkwt07QOoeNTn4K7qpUUNYjLJ9aHu7B8wOy7jiTLUSL
ZuqUJCfk+C8j8l8CggEBANnB2dyX/Q9I8vmXAnXpieJ3UmlFAYi/yU9ZR/zDYVoX
lo4926iOOkD6QlmB7BE68/PnVtExLNe1wKYYPAkVZ/1rsynJKAd8DOPRtB0vd/LR
k/GCTdaGQK3AcIRQWS7Ehb5v8b2xf0ttvinOPK6VfwR7vVt1Ut5AR6/6z+4ClVj9
7ADFHXa7tE1iMmjCl2ejpr6pOlgPu6jOr/SrTvvSsh+AqquIHNdSqHkoQJCDQZl7
wwzG5pnk0GvUl0tcAVCjArX5eSh5I/h2TX14x4+1e/rt4BB+y0WvTvB/CTe5w5H9
erTrXUdUrPQVr/pNiBUZ/IMm42gT9h5kaufFfwjyC9cCggEBAPseOWGPit4nJtol
9JLyhRztunLoJSvRbVuD0XUM91nNVL68pBA+/JYIDAx5Rmtu/twOSxFkMt6bRWpa
apopZcOjPbQZc3/6PU3hQGYyRbRdTPMcX0lWfa/cv6HJrVLeogWbrwNssU5h0n8d
1NfprTDOU/pDX4+II/SFlEbd7w7ZF55ZtyGuOqEUpFMCymSP3//VKqT6pOF673wx
O2fPtyjVHCNhUJk/HKnm1A5GvuWR1BCuSGi/zA+cJyb0PPzqxdUTP3q0kbmY/sE6
58kMn9gG456D/Ov/9OcubVfpNfdumjOlBZvF+qgTnSzAQuoNv+zRKW8TAR4qBHka
RUJaozcCggEBANm6MhOXBLhbwFY+3372W5/MnuIS1U3eNXLZWlkpIhXqr+bZguAu
FaESmXTVqywvPe0JyoywFp44ZL+uS5jphmilXybQsu2I43qHGwhzhgOL+djo6Nsu
sU0JtXcWv5U7el7Hn3aEGztYJ2O1ioclgzMAZn0j+g+vRf53UaAxhRLOEUNT0/n8
BHO7U5vbtXcy8m6A1o1mbcSDpPuGrhqsuN020W9hUTUauMkrriLQmq7USFpmJfyK
BLtMfVokTExMMVGyd6o4Nfcgkqp6MU9HrwdfAUJ9BNJQTyW4X4cQfrNiN2beTw4b
ZDNJ3ALxsrcmnIymPYq7KsOItDu6BSL0oVECggEAfTA+OZcDkMyd9tpsZ9MYukSE
//ASVlbX+vPrFB8vhQEUyVtzc1Vir4eHinOas5+Pc2lUAz85zmASrkG9TV2tzAVu
pmQEFRx6yT538RkxNM+nwqlcaTMy2UK4hWhLQGqjPrm3rxEc2Rqj1bSx3yhJteb5
W8KwlTj5tJnDQFZWZFDJQThOjyygae6byqbDZzO9Z44EQqn7SU+qhEfJIvzhHmy7
i2D9Wp/IPqCKlkchLinD63OifanxkM18nsqSjhgZwTa+RAFn/dPlebwNDslL/tbh
xjUn5XrW9fT6U/fg+Ew1z75SVS4FQbQJLgiIARLoEgKeT6SBcqbwRuuvhdlSqA==
-----END RSA PRIVATE KEY-----
